; Function Attrs: nounwind sspstrong uwtable
define internal void @vhost_user_gpu_guest_notifier_mask(ptr noundef %vdev, i32 noundef %idx, i1 noundef zeroext %mask) #0 {
entry:
  %call.i = tail call ptr @object_dynamic_cast_assert(ptr noundef %vdev, ptr noundef nonnull @.str, ptr noundef nonnull @.str.4, i32 noundef 39, ptr noundef nonnull @__func__.VHOST_USER_GPU) #7
  %cmp = icmp eq i32 %idx, -1
  br i1 %cmp, label %return, label %if.end

if.end:                                           ; preds = %entry
  %vhost = getelementptr inbounds nuw i8, ptr %call.i, i64 2928
  %0 = load ptr, ptr %vhost, align 16
  %dev = getelementptr inbounds nuw i8, ptr %0, i64 128
  tail call void @vhost_virtqueue_mask(ptr noundef nonnull %dev, ptr noundef %vdev, i32 noundef %idx, i1 noundef zeroext %mask) #7
  br label %return

return:                                           ; preds = %entry, %if.end
  ret void
}